target datalayout = "e-m:e-p270:32:32-p271:32:32-p272:64:64-i64:64-i128:128-f80:128-n8:16:32:64-S128"
target triple = "x86_64-pc-linux-gnu"

%struct.H5CX_node_t = type { %struct.H5CX_t, ptr }
%struct.H5CX_t = type { i64, ptr, i64, ptr, i64, ptr, i64, ptr, i64, ptr, i64, ptr, i64, i32, i64, i8, ptr, i8, ptr, i8, i32, i8, [3 x double], i8, i64, i8, i32, i8, %struct.H5Z_cb_t, i8, ptr, i8, %struct.H5T_vlen_alloc_info_t, i8, %struct.H5T_conv_cb_t, i8, i32, i8, i8, i8, i32, i8, i8, i32, i8, i8, i32, i8, i32, i8, i64, i8, i8, i8, i8, i8, ptr, i8, ptr, i8, i32, i8, i32, i8, %struct.H5VL_connector_prop_t, i8, ptr, i8 }
%struct.H5Z_cb_t = type { ptr, ptr }
%struct.H5T_vlen_alloc_info_t = type { ptr, ptr, ptr, ptr }
%struct.H5T_conv_cb_t = type { ptr, ptr }
%struct.H5VL_connector_prop_t = type { ptr, ptr }

@H5_libinit_g = external global i8, align 1
@H5_libterm_g = external global i8, align 1
@.str = private unnamed_addr constant [97 x i8] c"generated/home/dtcxzyw/WorkSpace/Projects/compilers/llvm-opt-benchmark/bench/hdf5/hdf5/src/H5L.c\00", align 1
@H5E_FUNC_g = external global i64, align 8
@H5E_CANTINIT_g = external global i64, align 8
@.str.1 = private unnamed_addr constant [30 x i8] c"library initialization failed\00", align 1
@H5L_init_g = external global i8, align 1
@.str.2 = private unnamed_addr constant [32 x i8] c"interface initialization failed\00", align 1
@H5E_CANTSET_g = external global i64, align 8
@.str.3 = private unnamed_addr constant [22 x i8] c"can't set API context\00", align 1
@H5E_LINK_g = external global i64, align 8
@H5E_CANTCREATE_g = external global i64, align 8
@__func__.H5Lcreate_soft_async = private unnamed_addr constant [21 x i8] c"H5Lcreate_soft_async\00", align 1
@.str.17 = private unnamed_addr constant [42 x i8] c"unable to asynchronously create soft link\00", align 1
@.str.18 = private unnamed_addr constant [15 x i8] c"*s*sIu*si*siii\00", align 1
@.str.19 = private unnamed_addr constant [9 x i8] c"app_file\00", align 1
@.str.20 = private unnamed_addr constant [9 x i8] c"app_func\00", align 1
@.str.21 = private unnamed_addr constant [9 x i8] c"app_line\00", align 1
@.str.22 = private unnamed_addr constant [12 x i8] c"link_target\00", align 1
@.str.23 = private unnamed_addr constant [12 x i8] c"link_loc_id\00", align 1
@.str.24 = private unnamed_addr constant [10 x i8] c"link_name\00", align 1
@.str.25 = private unnamed_addr constant [8 x i8] c"lcpl_id\00", align 1
@.str.26 = private unnamed_addr constant [8 x i8] c"lapl_id\00", align 1
@.str.27 = private unnamed_addr constant [6 x i8] c"es_id\00", align 1
@H5E_CANTINSERT_g = external global i64, align 8
@.str.28 = private unnamed_addr constant [34 x i8] c"can't insert token into event set\00", align 1

; Function Attrs: nounwind uwtable
define i32 @H5Lcreate_soft_async(ptr noundef %0, ptr noundef %1, i32 noundef %2, ptr noundef %3, i64 noundef %4, ptr noundef %5, i64 noundef %6, i64 noundef %7, i64 noundef %8) #0 {
  %10 = alloca ptr, align 8
  %11 = alloca ptr, align 8
  %12 = alloca i32, align 4
  %13 = alloca ptr, align 8
  %14 = alloca i64, align 8
  %15 = alloca ptr, align 8
  %16 = alloca i64, align 8
  %17 = alloca i64, align 8
  %18 = alloca i64, align 8
  %19 = alloca ptr, align 8
  %20 = alloca ptr, align 8
  %21 = alloca ptr, align 8
  %22 = alloca i32, align 4
  %23 = alloca %struct.H5CX_node_t, align 8
  %24 = alloca i8, align 1
  %25 = alloca i8, align 1
  store ptr %0, ptr %10, align 8, !tbaa !7
  store ptr %1, ptr %11, align 8, !tbaa !7
  store i32 %2, ptr %12, align 4, !tbaa !12
  store ptr %3, ptr %13, align 8, !tbaa !7
  store i64 %4, ptr %14, align 8, !tbaa !3
  store ptr %5, ptr %15, align 8, !tbaa !7
  store i64 %6, ptr %16, align 8, !tbaa !3
  store i64 %7, ptr %17, align 8, !tbaa !3
  store i64 %8, ptr %18, align 8, !tbaa !3
  call void @llvm.lifetime.start.p0(i64 8, ptr %19) #8
  store ptr null, ptr %19, align 8, !tbaa !10
  call void @llvm.lifetime.start.p0(i64 8, ptr %20) #8
  store ptr null, ptr %20, align 8, !tbaa !22
  call void @llvm.lifetime.start.p0(i64 8, ptr %21) #8
  store ptr null, ptr %21, align 8, !tbaa !22
  call void @llvm.lifetime.start.p0(i64 4, ptr %22) #8
  store i32 0, ptr %22, align 4, !tbaa !12
  call void @llvm.lifetime.start.p0(i64 480, ptr %23) #8
  call void @llvm.memset.p0.i64(ptr align 8 %23, i8 0, i64 480, i1 false)
  call void @llvm.lifetime.start.p0(i64 1, ptr %24) #8
  store i8 0, ptr %24, align 1, !tbaa !14
  call void @llvm.lifetime.start.p0(i64 1, ptr %25) #8
  store i8 0, ptr %25, align 1, !tbaa !14
  br label %26

26:                                               ; preds = %9
  %27 = load i8, ptr @H5_libinit_g, align 1, !tbaa !14, !range !16, !noundef !17
  %28 = trunc i8 %27 to i1
  br i1 %28, label %33, label %29

29:                                               ; preds = %26
  %30 = load i8, ptr @H5_libterm_g, align 1, !tbaa !14, !range !16, !noundef !17
  %31 = trunc i8 %30 to i1
  %32 = xor i1 %31, true
  br label %33

33:                                               ; preds = %29, %26
  %34 = phi i1 [ false, %26 ], [ %32, %29 ]
  %35 = xor i1 %34, true
  %36 = xor i1 %35, true
  %37 = zext i1 %36 to i32
  %38 = sext i32 %37 to i64
  %39 = call i64 @llvm.expect.i64(i64 %38, i64 0)
  %40 = icmp ne i64 %39, 0
  br i1 %40, label %41, label %70

41:                                               ; preds = %33
  %42 = call i32 @H5_init_library()
  %43 = icmp slt i32 %42, 0
  %44 = xor i1 %43, true
  %45 = xor i1 %44, true
  %46 = zext i1 %45 to i32
  %47 = sext i32 %46 to i64
  %48 = call i64 @llvm.expect.i64(i64 %47, i64 0)
  %49 = icmp ne i64 %48, 0
  br i1 %49, label %50, label %69

50:                                               ; preds = %41
  br label %51

51:                                               ; preds = %50
  br label %52

52:                                               ; preds = %51
  br label %53

53:                                               ; preds = %52
  %54 = load i64, ptr @H5E_FUNC_g, align 8, !tbaa !3
  %55 = load i64, ptr @H5E_CANTINIT_g, align 8, !tbaa !3
  %56 = call i32 (ptr, ptr, i32, i64, i64, ptr, ...) @H5E_printf_stack(ptr noundef @.str, ptr noundef @__func__.H5Lcreate_soft_async, i32 noundef 390, i64 noundef %54, i64 noundef %55, ptr noundef @.str.1)
  br label %57

57:                                               ; preds = %53
  br label %58

58:                                               ; preds = %57
  store i8 1, ptr %25, align 1, !tbaa !14
  %59 = load i8, ptr %25, align 1, !tbaa !14, !range !16, !noundef !17
  %60 = trunc i8 %59 to i1
  %61 = zext i1 %60 to i8
  store i8 %61, ptr %25, align 1, !tbaa !14
  br label %62

62:                                               ; preds = %58
  br label %63

63:                                               ; preds = %62
  br label %64

64:                                               ; preds = %63
  store i32 -1, ptr %22, align 4, !tbaa !12
  br label %215

65:                                               ; No predecessors!
  br label %66

66:                                               ; preds = %65
  br label %67

67:                                               ; preds = %66
  br label %68

68:                                               ; preds = %67
  br label %69

69:                                               ; preds = %68, %41
  br label %70

70:                                               ; preds = %69, %33
  %71 = load i8, ptr @H5L_init_g, align 1, !tbaa !14, !range !16, !noundef !17
  %72 = trunc i8 %71 to i1
  br i1 %72, label %77, label %73

73:                                               ; preds = %70
  %74 = load i8, ptr @H5_libterm_g, align 1, !tbaa !14, !range !16, !noundef !17
  %75 = trunc i8 %74 to i1
  %76 = xor i1 %75, true
  br label %77

77:                                               ; preds = %73, %70
  %78 = phi i1 [ false, %70 ], [ %76, %73 ]
  %79 = xor i1 %78, true
  %80 = xor i1 %79, true
  %81 = zext i1 %80 to i32
  %82 = sext i32 %81 to i64
  %83 = call i64 @llvm.expect.i64(i64 %82, i64 0)
  %84 = icmp ne i64 %83, 0
  br i1 %84, label %85, label %108

85:                                               ; preds = %77
  store i8 1, ptr @H5L_init_g, align 1, !tbaa !14
  %86 = call i32 @H5L__init_package()
  %87 = icmp slt i32 %86, 0
  br i1 %87, label %88, label %107

88:                                               ; preds = %85
  store i8 0, ptr @H5L_init_g, align 1, !tbaa !14
  br label %89

89:                                               ; preds = %88
  br label %90

90:                                               ; preds = %89
  br label %91

91:                                               ; preds = %90
  %92 = load i64, ptr @H5E_FUNC_g, align 8, !tbaa !3
  %93 = load i64, ptr @H5E_CANTINIT_g, align 8, !tbaa !3
  %94 = call i32 (ptr, ptr, i32, i64, i64, ptr, ...) @H5E_printf_stack(ptr noundef @.str, ptr noundef @__func__.H5Lcreate_soft_async, i32 noundef 390, i64 noundef %92, i64 noundef %93, ptr noundef @.str.2)
  br label %95

95:                                               ; preds = %91
  br label %96

96:                                               ; preds = %95
  store i8 1, ptr %25, align 1, !tbaa !14
  %97 = load i8, ptr %25, align 1, !tbaa !14, !range !16, !noundef !17
  %98 = trunc i8 %97 to i1
  %99 = zext i1 %98 to i8
  store i8 %99, ptr %25, align 1, !tbaa !14
  br label %100

100:                                              ; preds = %96
  br label %101

101:                                              ; preds = %100
  br label %102

102:                                              ; preds = %101
  store i32 -1, ptr %22, align 4, !tbaa !12
  br label %215

103:                                              ; No predecessors!
  br label %104

104:                                              ; preds = %103
  br label %105

105:                                              ; preds = %104
  br label %106

106:                                              ; preds = %105
  br label %107

107:                                              ; preds = %106, %85
  br label %108

108:                                              ; preds = %107, %77
  br label %109

109:                                              ; preds = %108
  br label %110

110:                                              ; preds = %109
  br label %111

111:                                              ; preds = %110
  %112 = call i32 @H5CX_push(ptr noundef %23)
  %113 = icmp slt i32 %112, 0
  %114 = xor i1 %113, true
  %115 = xor i1 %114, true
  %116 = zext i1 %115 to i32
  %117 = sext i32 %116 to i64
  %118 = call i64 @llvm.expect.i64(i64 %117, i64 0)
  %119 = icmp ne i64 %118, 0
  br i1 %119, label %120, label %139

120:                                              ; preds = %111
  br label %121

121:                                              ; preds = %120
  br label %122

122:                                              ; preds = %121
  br label %123

123:                                              ; preds = %122
  %124 = load i64, ptr @H5E_FUNC_g, align 8, !tbaa !3
  %125 = load i64, ptr @H5E_CANTSET_g, align 8, !tbaa !3
  %126 = call i32 (ptr, ptr, i32, i64, i64, ptr, ...) @H5E_printf_stack(ptr noundef @.str, ptr noundef @__func__.H5Lcreate_soft_async, i32 noundef 390, i64 noundef %124, i64 noundef %125, ptr noundef @.str.3)
  br label %127

127:                                              ; preds = %123
  br label %128

128:                                              ; preds = %127
  store i8 1, ptr %25, align 1, !tbaa !14
  %129 = load i8, ptr %25, align 1, !tbaa !14, !range !16, !noundef !17
  %130 = trunc i8 %129 to i1
  %131 = zext i1 %130 to i8
  store i8 %131, ptr %25, align 1, !tbaa !14
  br label %132

132:                                              ; preds = %128
  br label %133

133:                                              ; preds = %132
  br label %134

134:                                              ; preds = %133
  store i32 -1, ptr %22, align 4, !tbaa !12
  br label %215

135:                                              ; No predecessors!
  br label %136

136:                                              ; preds = %135
  br label %137

137:                                              ; preds = %136
  br label %138

138:                                              ; preds = %137
  br label %140

139:                                              ; preds = %111
  store i8 1, ptr %24, align 1, !tbaa !14
  br label %140

140:                                              ; preds = %139, %138
  br label %141

141:                                              ; preds = %140
  br label %142

142:                                              ; preds = %141
  %143 = call i32 @H5E_clear_stack()
  %144 = load i64, ptr %18, align 8, !tbaa !3
  %145 = icmp ne i64 0, %144
  br i1 %145, label %146, label %147

146:                                              ; preds = %142
  store ptr %20, ptr %21, align 8, !tbaa !22
  br label %147

147:                                              ; preds = %146, %142
  %148 = load ptr, ptr %13, align 8, !tbaa !7
  %149 = load i64, ptr %14, align 8, !tbaa !3
  %150 = load ptr, ptr %15, align 8, !tbaa !7
  %151 = load i64, ptr %16, align 8, !tbaa !3
  %152 = load i64, ptr %17, align 8, !tbaa !3
  %153 = load ptr, ptr %21, align 8, !tbaa !22
  %154 = call i32 @H5L__create_soft_api_common(ptr noundef %148, i64 noundef %149, ptr noundef %150, i64 noundef %151, i64 noundef %152, ptr noundef %153, ptr noundef %19)
  %155 = icmp slt i32 %154, 0
  br i1 %155, label %156, label %175

156:                                              ; preds = %147
  br label %157

157:                                              ; preds = %156
  br label %158

158:                                              ; preds = %157
  br label %159

159:                                              ; preds = %158
  %160 = load i64, ptr @H5E_LINK_g, align 8, !tbaa !3
  %161 = load i64, ptr @H5E_CANTCREATE_g, align 8, !tbaa !3
  %162 = call i32 (ptr, ptr, i32, i64, i64, ptr, ...) @H5E_printf_stack(ptr noundef @.str, ptr noundef @__func__.H5Lcreate_soft_async, i32 noundef 399, i64 noundef %160, i64 noundef %161, ptr noundef @.str.17)
  br label %163

163:                                              ; preds = %159
  br label %164

164:                                              ; preds = %163
  store i8 1, ptr %25, align 1, !tbaa !14
  %165 = load i8, ptr %25, align 1, !tbaa !14, !range !16, !noundef !17
  %166 = trunc i8 %165 to i1
  %167 = zext i1 %166 to i8
  store i8 %167, ptr %25, align 1, !tbaa !14
  br label %168

168:                                              ; preds = %164
  br label %169

169:                                              ; preds = %168
  br label %170

170:                                              ; preds = %169
  store i32 -1, ptr %22, align 4, !tbaa !12
  br label %215

171:                                              ; No predecessors!
  br label %172

172:                                              ; preds = %171
  br label %173

173:                                              ; preds = %172
  br label %174

174:                                              ; preds = %173
  br label %175

175:                                              ; preds = %174, %147
  %176 = load ptr, ptr %20, align 8, !tbaa !22
  %177 = icmp ne ptr null, %176
  br i1 %177, label %178, label %214

178:                                              ; preds = %175
  %179 = load i64, ptr %18, align 8, !tbaa !3
  %180 = load ptr, ptr %19, align 8, !tbaa !10
  %181 = call ptr @H5VL_obj_get_connector(ptr noundef %180)
  %182 = load ptr, ptr %20, align 8, !tbaa !22
  %183 = load ptr, ptr %10, align 8, !tbaa !7
  %184 = load ptr, ptr %11, align 8, !tbaa !7
  %185 = load i32, ptr %12, align 4, !tbaa !12
  %186 = load ptr, ptr %13, align 8, !tbaa !7
  %187 = load i64, ptr %14, align 8, !tbaa !3
  %188 = load ptr, ptr %15, align 8, !tbaa !7
  %189 = load i64, ptr %16, align 8, !tbaa !3
  %190 = load i64, ptr %17, align 8, !tbaa !3
  %191 = load i64, ptr %18, align 8, !tbaa !3
  %192 = call i32 (i64, ptr, ptr, ptr, ptr, ...) @H5ES_insert(i64 noundef %179, ptr noundef %181, ptr noundef %182, ptr noundef @__func__.H5Lcreate_soft_async, ptr noundef @.str.18, ptr noundef @.str.19, ptr noundef %183, ptr noundef @.str.20, ptr noundef %184, ptr noundef @.str.21, i32 noundef %185, ptr noundef @.str.22, ptr noundef %186, ptr noundef @.str.23, i64 noundef %187, ptr noundef @.str.24, ptr noundef %188, ptr noundef @.str.25, i64 noundef %189, ptr noundef @.str.26, i64 noundef %190, ptr noundef @.str.27, i64 noundef %191)
  %193 = icmp slt i32 %192, 0
  br i1 %193, label %194, label %213

194:                                              ; preds = %178
  br label %195

195:                                              ; preds = %194
  br label %196

196:                                              ; preds = %195
  br label %197

197:                                              ; preds = %196
  %198 = load i64, ptr @H5E_LINK_g, align 8, !tbaa !3
  %199 = load i64, ptr @H5E_CANTINSERT_g, align 8, !tbaa !3
  %200 = call i32 (ptr, ptr, i32, i64, i64, ptr, ...) @H5E_printf_stack(ptr noundef @.str, ptr noundef @__func__.H5Lcreate_soft_async, i32 noundef 407, i64 noundef %198, i64 noundef %199, ptr noundef @.str.28)
  br label %201

201:                                              ; preds = %197
  br label %202

202:                                              ; preds = %201
  store i8 1, ptr %25, align 1, !tbaa !14
  %203 = load i8, ptr %25, align 1, !tbaa !14, !range !16, !noundef !17
  %204 = trunc i8 %203 to i1
  %205 = zext i1 %204 to i8
  store i8 %205, ptr %25, align 1, !tbaa !14
  br label %206

206:                                              ; preds = %202
  br label %207

207:                                              ; preds = %206
  br label %208

208:                                              ; preds = %207
  store i32 -1, ptr %22, align 4, !tbaa !12
  br label %215

209:                                              ; No predecessors!
  br label %210

210:                                              ; preds = %209
  br label %211

211:                                              ; preds = %210
  br label %212

212:                                              ; preds = %211
  br label %213

213:                                              ; preds = %212, %178
  br label %214

214:                                              ; preds = %213, %175
  br label %215

215:                                              ; preds = %214, %208, %170, %134, %102, %64
  %216 = load i8, ptr %24, align 1, !tbaa !14, !range !16, !noundef !17
  %217 = trunc i8 %216 to i1
  %218 = xor i1 %217, true
  %219 = xor i1 %218, true
  %220 = zext i1 %219 to i32
  %221 = sext i32 %220 to i64
  %222 = call i64 @llvm.expect.i64(i64 %221, i64 1)
  %223 = icmp ne i64 %222, 0
  br i1 %223, label %224, label %226

224:                                              ; preds = %215
  %225 = call i32 @H5CX_pop(i1 noundef zeroext true)
  store i8 0, ptr %24, align 1, !tbaa !14
  br label %226

226:                                              ; preds = %224, %215
  %227 = load i8, ptr %25, align 1, !tbaa !14, !range !16, !noundef !17
  %228 = trunc i8 %227 to i1
  %229 = xor i1 %228, true
  %230 = xor i1 %229, true
  %231 = zext i1 %230 to i32
  %232 = sext i32 %231 to i64
  %233 = call i64 @llvm.expect.i64(i64 %232, i64 0)
  %234 = icmp ne i64 %233, 0
  br i1 %234, label %235, label %237

235:                                              ; preds = %226
  %236 = call i32 @H5E_dump_api_stack()
  br label %237

237:                                              ; preds = %235, %226
  %238 = load i32, ptr %22, align 4, !tbaa !12
  call void @llvm.lifetime.end.p0(i64 1, ptr %25) #8
  call void @llvm.lifetime.end.p0(i64 1, ptr %24) #8
  call void @llvm.lifetime.end.p0(i64 480, ptr %23) #8
  call void @llvm.lifetime.end.p0(i64 4, ptr %22) #8
  call void @llvm.lifetime.end.p0(i64 8, ptr %21) #8
  call void @llvm.lifetime.end.p0(i64 8, ptr %20) #8
  call void @llvm.lifetime.end.p0(i64 8, ptr %19) #8
  ret i32 %238
}