; Function Attrs: nounwind uwtable
define range(i32 -1, 1) i32 @H5Lcreate_soft_async(ptr noundef %0, ptr noundef %1, i32 noundef %2, ptr noundef %3, i64 noundef %4, ptr noundef %5, i64 noundef %6, i64 noundef %7, i64 noundef %8) local_unnamed_addr #0 {
  %10 = alloca ptr, align 8
  %11 = alloca ptr, align 8
  %12 = alloca %struct.H5CX_node_t, align 8
  call void @llvm.lifetime.start.p0(i64 8, ptr nonnull %10) #7
  store ptr null, ptr %10, align 8, !tbaa !20
  call void @llvm.lifetime.start.p0(i64 8, ptr nonnull %11) #7
  store ptr null, ptr %11, align 8, !tbaa !25
  call void @llvm.lifetime.start.p0(i64 480, ptr nonnull %12) #7
  call void @llvm.memset.p0.i64(ptr noundef nonnull align 8 dereferenceable(480) %12, i8 0, i64 480, i1 false)
  %13 = load i8, ptr @H5_libinit_g, align 1, !tbaa !7, !range !9, !noundef !10
  %14 = trunc nuw i8 %13 to i1
  %15 = load i8, ptr @H5_libterm_g, align 1, !range !9
  %16 = trunc nuw i8 %15 to i1
  %17 = select i1 %14, i1 true, i1 %16
  br i1 %17, label %25, label %18, !prof !11

18:                                               ; preds = %9
  %19 = tail call i32 @H5_init_library() #7
  %20 = icmp slt i32 %19, 0
  br i1 %20, label %21, label %._crit_edge, !prof !12

._crit_edge:                                      ; preds = %18
  %.pre = load i8, ptr @H5_libterm_g, align 1, !range !9
  br label %25

21:                                               ; preds = %18
  %22 = load i64, ptr @H5E_FUNC_g, align 8, !tbaa !3
  %23 = load i64, ptr @H5E_CANTINIT_g, align 8, !tbaa !3
  %24 = tail call i32 (ptr, ptr, i32, i64, i64, ptr, ...) @H5E_printf_stack(ptr noundef nonnull @.str, ptr noundef nonnull @__func__.H5Lcreate_soft_async, i32 noundef 390, i64 noundef %22, i64 noundef %23, ptr noundef nonnull @.str.1) #7
  br label %.thread36

25:                                               ; preds = %._crit_edge, %9
  %26 = phi i8 [ %.pre, %._crit_edge ], [ %15, %9 ]
  %27 = load i8, ptr @H5L_init_g, align 1, !tbaa !7, !range !9, !noundef !10
  %28 = trunc nuw i8 %27 to i1
  %29 = trunc nuw i8 %26 to i1
  %30 = select i1 %28, i1 true, i1 %29
  br i1 %30, label %38, label %31, !prof !11

31:                                               ; preds = %25
  store i8 1, ptr @H5L_init_g, align 1, !tbaa !7
  %32 = tail call i32 @H5L__init_package() #7
  %33 = icmp slt i32 %32, 0
  br i1 %33, label %34, label %38, !prof !13

34:                                               ; preds = %31
  store i8 0, ptr @H5L_init_g, align 1, !tbaa !7
  %35 = load i64, ptr @H5E_FUNC_g, align 8, !tbaa !3
  %36 = load i64, ptr @H5E_CANTINIT_g, align 8, !tbaa !3
  %37 = tail call i32 (ptr, ptr, i32, i64, i64, ptr, ...) @H5E_printf_stack(ptr noundef nonnull @.str, ptr noundef nonnull @__func__.H5Lcreate_soft_async, i32 noundef 390, i64 noundef %35, i64 noundef %36, ptr noundef nonnull @.str.2) #7
  br label %.thread36

38:                                               ; preds = %25, %31
  %39 = call i32 @H5CX_push(ptr noundef nonnull %12) #7
  %40 = icmp slt i32 %39, 0
  br i1 %40, label %41, label %45, !prof !12

41:                                               ; preds = %38
  %42 = load i64, ptr @H5E_FUNC_g, align 8, !tbaa !3
  %43 = load i64, ptr @H5E_CANTSET_g, align 8, !tbaa !3
  %44 = call i32 (ptr, ptr, i32, i64, i64, ptr, ...) @H5E_printf_stack(ptr noundef nonnull @.str, ptr noundef nonnull @__func__.H5Lcreate_soft_async, i32 noundef 390, i64 noundef %42, i64 noundef %43, ptr noundef nonnull @.str.3) #7
  br label %.thread36

45:                                               ; preds = %38
  %46 = call i32 @H5E_clear_stack() #7
  %.not = icmp eq i64 %8, 0
  %spec.select = select i1 %.not, ptr null, ptr %11
  %47 = call fastcc i32 @H5L__create_soft_api_common(ptr noundef %3, i64 noundef %4, ptr noundef %5, i64 noundef %6, i64 noundef %7, ptr noundef %spec.select, ptr noundef nonnull %10)
  %48 = icmp slt i32 %47, 0
  br i1 %48, label %49, label %53, !prof !19

49:                                               ; preds = %45
  %50 = load i64, ptr @H5E_LINK_g, align 8, !tbaa !3
  %51 = load i64, ptr @H5E_CANTCREATE_g, align 8, !tbaa !3
  %52 = call i32 (ptr, ptr, i32, i64, i64, ptr, ...) @H5E_printf_stack(ptr noundef nonnull @.str, ptr noundef nonnull @__func__.H5Lcreate_soft_async, i32 noundef 399, i64 noundef %50, i64 noundef %51, ptr noundef nonnull @.str.17) #7
  br label %.thread42

53:                                               ; preds = %45
  %54 = load ptr, ptr %11, align 8, !tbaa !25
  %.not27 = icmp eq ptr %54, null
  br i1 %.not27, label %66, label %55

55:                                               ; preds = %53
  %56 = load ptr, ptr %10, align 8, !tbaa !20
  %57 = call ptr @H5VL_obj_get_connector(ptr noundef %56) #7
  %58 = load ptr, ptr %11, align 8, !tbaa !25
  %59 = call i32 (i64, ptr, ptr, ptr, ptr, ...) @H5ES_insert(i64 noundef %8, ptr noundef %57, ptr noundef %58, ptr noundef nonnull @__func__.H5Lcreate_soft_async, ptr noundef nonnull @.str.18, ptr noundef nonnull @.str.19, ptr noundef %0, ptr noundef nonnull @.str.20, ptr noundef %1, ptr noundef nonnull @.str.21, i32 noundef %2, ptr noundef nonnull @.str.22, ptr noundef %3, ptr noundef nonnull @.str.23, i64 noundef %4, ptr noundef nonnull @.str.24, ptr noundef %5, ptr noundef nonnull @.str.25, i64 noundef %6, ptr noundef nonnull @.str.26, i64 noundef %7, ptr noundef nonnull @.str.27, i64 noundef %8) #7
  %60 = icmp slt i32 %59, 0
  br i1 %60, label %61, label %66, !prof !19

61:                                               ; preds = %55
  %62 = load i64, ptr @H5E_LINK_g, align 8, !tbaa !3
  %63 = load i64, ptr @H5E_CANTINSERT_g, align 8, !tbaa !3
  %64 = call i32 (ptr, ptr, i32, i64, i64, ptr, ...) @H5E_printf_stack(ptr noundef nonnull @.str, ptr noundef nonnull @__func__.H5Lcreate_soft_async, i32 noundef 407, i64 noundef %62, i64 noundef %63, ptr noundef nonnull @.str.28) #7
  br label %.thread42

.thread42:                                        ; preds = %61, %49
  %65 = call i32 @H5CX_pop(i1 noundef zeroext true) #7
  br label %.thread36

66:                                               ; preds = %53, %55
  %67 = call i32 @H5CX_pop(i1 noundef zeroext true) #7
  br label %69

.thread36:                                        ; preds = %41, %34, %21, %.thread42
  %68 = call i32 @H5E_dump_api_stack() #7
  br label %69

69:                                               ; preds = %66, %.thread36
  %.0253139 = phi i32 [ -1, %.thread36 ], [ 0, %66 ]
  call void @llvm.lifetime.end.p0(i64 480, ptr nonnull %12) #7
  call void @llvm.lifetime.end.p0(i64 8, ptr nonnull %11) #7
  call void @llvm.lifetime.end.p0(i64 8, ptr nonnull %10) #7
  ret i32 %.0253139
}